; Function Attrs: mustprogress uwtable
define noundef zeroext i1 @_ZNK4cvc58internal8TypeNode12isInstanceOfERKS1_(ptr noundef nonnull readonly align 8 captures(none) dereferenceable(8) %0, ptr noundef nonnull readonly align 8 captures(none) dereferenceable(8) %1) local_unnamed_addr #4 align 2 personality ptr @__gxx_personality_v0 {
  %3 = alloca %"class.cvc5::internal::TypeNode", align 8
  call void @llvm.lifetime.start.p0(i64 8, ptr nonnull %3) #24
  call void @_ZNK4cvc58internal8TypeNode13unifyInternalERKS1_b(ptr dead_on_unwind nonnull writable sret(%"class.cvc5::internal::TypeNode") align 8 %3, ptr noundef nonnull readonly align 8 dereferenceable(8) %0, ptr noundef nonnull readonly align 8 dereferenceable(8) %1, i1 noundef zeroext true)
  %4 = load ptr, ptr %3, align 8, !tbaa !3
  %5 = load ptr, ptr %0, align 8, !tbaa !3
  %6 = load i64, ptr %4, align 8
  %7 = and i64 %6, 1152920405095219200
  %.not.i.i = icmp eq i64 %7, 1152920405095219200
  br i1 %.not.i.i, label %_ZN4cvc58internal8TypeNodeD2Ev.exit, label %8, !prof !9

8:                                                ; preds = %2
  %9 = add i64 %6, 1152920405095219200
  %10 = and i64 %9, 1152920405095219200
  %11 = and i64 %6, -1152920405095219201
  %12 = or disjoint i64 %10, %11
  store i64 %12, ptr %4, align 8
  %13 = icmp eq i64 %10, 0
  br i1 %13, label %14, label %_ZN4cvc58internal8TypeNodeD2Ev.exit, !prof !9

14:                                               ; preds = %8
  invoke void @_ZN4cvc58internal4expr9NodeValue15markForDeletionEv(ptr noundef nonnull align 8 dereferenceable(24) %4)
          to label %_ZN4cvc58internal8TypeNodeD2Ev.exit unwind label %15

15:                                               ; preds = %14
  %16 = landingpad { ptr, i32 }
          catch ptr null
  %17 = extractvalue { ptr, i32 } %16, 0
  call void @__clang_call_terminate(ptr %17) #23
  unreachable

_ZN4cvc58internal8TypeNodeD2Ev.exit:              ; preds = %2, %8, %14
  %18 = icmp eq ptr %4, %5
  call void @llvm.lifetime.end.p0(i64 8, ptr nonnull %3) #24
  ret i1 %18
}